; Function Attrs: null_pointer_is_valid sspstrong uwtable
define internal noundef i32 @decode_dataitem_li_length(ptr noundef %0, ptr noundef readonly captures(none) %1, ptr noundef %2, ptr readnone captures(none) %3) #0 {
  %5 = tail call ptr @proto_tree_get_parent(ptr noundef %2)
  %6 = load i32, ptr @hf_dlep_dataitem_li_length, align 4
  %7 = tail call ptr @proto_tree_add_item(ptr noundef %2, i32 noundef %6, ptr noundef %0, i32 noundef 0, i32 noundef 2, i32 noundef 0)
  %8 = getelementptr inbounds nuw i8, ptr %1, i64 408
  %9 = load ptr, ptr %8, align 8
  %10 = tail call ptr @proto_item_get_display_repr(ptr noundef %9, ptr noundef %7)
  tail call void (ptr, ptr, ...) @proto_item_append_text(ptr noundef %5, ptr noundef nonnull @.str.221, ptr noundef %10)
  ret i32 2
}